; ModuleID = '22/610.c'
source_filename = "22/610.c"
target datalayout = "e-m:e-p270:32:32-p271:32:32-p272:64:64-i64:64-f80:128-n8:16:32:64-S128"
target triple = "x86_64-pc-linux-gnu"

@.str = private unnamed_addr constant [3 x i8] c"No\00", align 1
@.str.1 = private unnamed_addr constant [3 x i8] c"%d\00", align 1

; Function Attrs: noinline nounwind uwtable
define dso_local void @main() #0 {
  %1 = alloca i32, align 4
  %2 = alloca i32, align 4
  %3 = alloca i32, align 4
  %4 = alloca i32, align 4
  %5 = alloca i32, align 4
  %6 = alloca [300 x i32], align 16
  %7 = alloca i32, align 4
  %8 = alloca [1200 x i8], align 16
  store i32 0, i32* %7, align 4
  %9 = getelementptr inbounds [1200 x i8], [1200 x i8]* %8, i64 0, i64 0
  %10 = call i32 (i8*, ...) bitcast (i32 (...)* @gets to i32 (i8*, ...)*)(i8* %9)
  %11 = getelementptr inbounds [1200 x i8], [1200 x i8]* %8, i64 0, i64 0
  %12 = call i64 @strlen(i8* %11) #3
  %13 = trunc i64 %12 to i32
  store i32 %13, i32* %4, align 4
  store i32 0, i32* %1, align 4
  store i32 -1, i32* %3, align 4
  br label %14

14:                                               ; preds = %88, %0
  %15 = load i32, i32* %1, align 4
  %16 = load i32, i32* %4, align 4
  %17 = sub nsw i32 %16, 1
  %18 = icmp sle i32 %15, %17
  br i1 %18, label %19, label %91

19:                                               ; preds = %14
  %20 = load i32, i32* %1, align 4
  %21 = sext i32 %20 to i64
  %22 = getelementptr inbounds [1200 x i8], [1200 x i8]* %8, i64 0, i64 %21
  %23 = load i8, i8* %22, align 1
  %24 = sext i8 %23 to i32
  %25 = icmp sge i32 %24, 48
  br i1 %25, label %26, label %87

26:                                               ; preds = %19
  %27 = load i32, i32* %1, align 4
  %28 = sext i32 %27 to i64
  %29 = getelementptr inbounds [1200 x i8], [1200 x i8]* %8, i64 0, i64 %28
  %30 = load i8, i8* %29, align 1
  %31 = sext i8 %30 to i32
  %32 = icmp sle i32 %31, 57
  br i1 %32, label %33, label %87

33:                                               ; preds = %26
  store i32 1, i32* %7, align 4
  %34 = load i32, i32* %3, align 4
  %35 = add nsw i32 %34, 1
  store i32 %35, i32* %3, align 4
  %36 = load i32, i32* %1, align 4
  store i32 %36, i32* %2, align 4
  %37 = load i32, i32* %1, align 4
  %38 = sext i32 %37 to i64
  %39 = getelementptr inbounds [1200 x i8], [1200 x i8]* %8, i64 0, i64 %38
  %40 = load i8, i8* %39, align 1
  %41 = sext i8 %40 to i32
  %42 = sub nsw i32 %41, 48
  %43 = load i32, i32* %3, align 4
  %44 = sext i32 %43 to i64
  %45 = getelementptr inbounds [300 x i32], [300 x i32]* %6, i64 0, i64 %44
  store i32 %42, i32* %45, align 4
  br label %46

46:                                               ; preds = %82, %33
  %47 = load i32, i32* %2, align 4
  %48 = add nsw i32 %47, 1
  %49 = sext i32 %48 to i64
  %50 = getelementptr inbounds [1200 x i8], [1200 x i8]* %8, i64 0, i64 %49
  %51 = load i8, i8* %50, align 1
  %52 = sext i8 %51 to i32
  %53 = icmp sge i32 %52, 48
  br i1 %53, label %54, label %62

54:                                               ; preds = %46
  %55 = load i32, i32* %2, align 4
  %56 = add nsw i32 %55, 1
  %57 = sext i32 %56 to i64
  %58 = getelementptr inbounds [1200 x i8], [1200 x i8]* %8, i64 0, i64 %57
  %59 = load i8, i8* %58, align 1
  %60 = sext i8 %59 to i32
  %61 = icmp sle i32 %60, 57
  br label %62

62:                                               ; preds = %54, %46
  %63 = phi i1 [ false, %46 ], [ %61, %54 ]
  br i1 %63, label %64, label %85

64:                                               ; preds = %62
  %65 = load i32, i32* %3, align 4
  %66 = sext i32 %65 to i64
  %67 = getelementptr inbounds [300 x i32], [300 x i32]* %6, i64 0, i64 %66
  %68 = load i32, i32* %67, align 4
  %69 = mul nsw i32 10, %68
  %70 = load i32, i32* %2, align 4
  %71 = add nsw i32 %70, 1
  %72 = sext i32 %71 to i64
  %73 = getelementptr inbounds [1200 x i8], [1200 x i8]* %8, i64 0, i64 %72
  %74 = load i8, i8* %73, align 1
  %75 = sext i8 %74 to i32
  %76 = add nsw i32 %69, %75
  %77 = sub nsw i32 %76, 49
  %78 = add nsw i32 %77, 1
  %79 = load i32, i32* %3, align 4
  %80 = sext i32 %79 to i64
  %81 = getelementptr inbounds [300 x i32], [300 x i32]* %6, i64 0, i64 %80
  store i32 %78, i32* %81, align 4
  br label %82

82:                                               ; preds = %64
  %83 = load i32, i32* %2, align 4
  %84 = add nsw i32 %83, 1
  store i32 %84, i32* %2, align 4
  br label %46

85:                                               ; preds = %62
  %86 = load i32, i32* %2, align 4
  store i32 %86, i32* %1, align 4
  br label %87

87:                                               ; preds = %85, %26, %19
  br label %88

88:                                               ; preds = %87
  %89 = load i32, i32* %1, align 4
  %90 = add nsw i32 %89, 1
  store i32 %90, i32* %1, align 4
  br label %14

91:                                               ; preds = %14
  store i32 0, i32* %1, align 4
  br label %92

92:                                               ; preds = %139, %91
  %93 = load i32, i32* %1, align 4
  %94 = load i32, i32* %3, align 4
  %95 = sub nsw i32 %94, 1
  %96 = icmp sle i32 %93, %95
  br i1 %96, label %97, label %142

97:                                               ; preds = %92
  store i32 0, i32* %2, align 4
  br label %98

98:                                               ; preds = %135, %97
  %99 = load i32, i32* %2, align 4
  %100 = load i32, i32* %3, align 4
  %101 = sub nsw i32 %100, 1
  %102 = load i32, i32* %1, align 4
  %103 = sub nsw i32 %101, %102
  %104 = icmp sle i32 %99, %103
  br i1 %104, label %105, label %138

105:                                              ; preds = %98
  %106 = load i32, i32* %2, align 4
  %107 = sext i32 %106 to i64
  %108 = getelementptr inbounds [300 x i32], [300 x i32]* %6, i64 0, i64 %107
  %109 = load i32, i32* %108, align 4
  %110 = load i32, i32* %2, align 4
  %111 = add nsw i32 %110, 1
  %112 = sext i32 %111 to i64
  %113 = getelementptr inbounds [300 x i32], [300 x i32]* %6, i64 0, i64 %112
  %114 = load i32, i32* %113, align 4
  %115 = icmp sgt i32 %109, %114
  br i1 %115, label %116, label %134

116:                                              ; preds = %105
  %117 = load i32, i32* %2, align 4
  %118 = sext i32 %117 to i64
  %119 = getelementptr inbounds [300 x i32], [300 x i32]* %6, i64 0, i64 %118
  %120 = load i32, i32* %119, align 4
  store i32 %120, i32* %5, align 4
  %121 = load i32, i32* %2, align 4
  %122 = add nsw i32 %121, 1
  %123 = sext i32 %122 to i64
  %124 = getelementptr inbounds [300 x i32], [300 x i32]* %6, i64 0, i64 %123
  %125 = load i32, i32* %124, align 4
  %126 = load i32, i32* %2, align 4
  %127 = sext i32 %126 to i64
  %128 = getelementptr inbounds [300 x i32], [300 x i32]* %6, i64 0, i64 %127
  store i32 %125, i32* %128, align 4
  %129 = load i32, i32* %5, align 4
  %130 = load i32, i32* %2, align 4
  %131 = add nsw i32 %130, 1
  %132 = sext i32 %131 to i64
  %133 = getelementptr inbounds [300 x i32], [300 x i32]* %6, i64 0, i64 %132
  store i32 %129, i32* %133, align 4
  br label %134

134:                                              ; preds = %116, %105
  br label %135

135:                                              ; preds = %134
  %136 = load i32, i32* %2, align 4
  %137 = add nsw i32 %136, 1
  store i32 %137, i32* %2, align 4
  br label %98

138:                                              ; preds = %98
  br label %139

139:                                              ; preds = %138
  %140 = load i32, i32* %1, align 4
  %141 = add nsw i32 %140, 1
  store i32 %141, i32* %1, align 4
  br label %92

142:                                              ; preds = %92
  %143 = load i32, i32* %7, align 4
  %144 = icmp eq i32 %143, 0
  br i1 %144, label %156, label %145

145:                                              ; preds = %142
  %146 = load i32, i32* %3, align 4
  %147 = icmp eq i32 %146, 0
  br i1 %147, label %156, label %148

148:                                              ; preds = %145
  %149 = getelementptr inbounds [300 x i32], [300 x i32]* %6, i64 0, i64 0
  %150 = load i32, i32* %149, align 16
  %151 = load i32, i32* %3, align 4
  %152 = sext i32 %151 to i64
  %153 = getelementptr inbounds [300 x i32], [300 x i32]* %6, i64 0, i64 %152
  %154 = load i32, i32* %153, align 4
  %155 = icmp eq i32 %150, %154
  br i1 %155, label %156, label %158

156:                                              ; preds = %148, %145, %142
  %157 = call i32 (i8*, ...) @printf(i8* getelementptr inbounds ([3 x i8], [3 x i8]* @.str, i64 0, i64 0))
  br label %158

158:                                              ; preds = %156, %148
  %159 = load i32, i32* %7, align 4
  %160 = icmp eq i32 %159, 1
  br i1 %160, label %161, label %189

161:                                              ; preds = %158
  %162 = load i32, i32* %3, align 4
  store i32 %162, i32* %1, align 4
  br label %163

163:                                              ; preds = %185, %161
  %164 = load i32, i32* %1, align 4
  %165 = icmp sge i32 %164, 1
  br i1 %165, label %166, label %188

166:                                              ; preds = %163
  %167 = load i32, i32* %1, align 4
  %168 = sub nsw i32 %167, 1
  %169 = sext i32 %168 to i64
  %170 = getelementptr inbounds [300 x i32], [300 x i32]* %6, i64 0, i64 %169
  %171 = load i32, i32* %170, align 4
  %172 = load i32, i32* %1, align 4
  %173 = sext i32 %172 to i64
  %174 = getelementptr inbounds [300 x i32], [300 x i32]* %6, i64 0, i64 %173
  %175 = load i32, i32* %174, align 4
  %176 = icmp slt i32 %171, %175
  br i1 %176, label %177, label %184

177:                                              ; preds = %166
  %178 = load i32, i32* %1, align 4
  %179 = sub nsw i32 %178, 1
  %180 = sext i32 %179 to i64
  %181 = getelementptr inbounds [300 x i32], [300 x i32]* %6, i64 0, i64 %180
  %182 = load i32, i32* %181, align 4
  %183 = call i32 (i8*, ...) @printf(i8* getelementptr inbounds ([3 x i8], [3 x i8]* @.str.1, i64 0, i64 0), i32 %182)
  br label %188

184:                                              ; preds = %166
  br label %185

185:                                              ; preds = %184
  %186 = load i32, i32* %1, align 4
  %187 = add nsw i32 %186, -1
  store i32 %187, i32* %1, align 4
  br label %163

188:                                              ; preds = %177, %163
  br label %189

189:                                              ; preds = %188, %158
  ret void
}

declare dso_local i32 @gets(...) #1

; Function Attrs: nounwind readonly
declare dso_local i64 @strlen(i8*) #2

declare dso_local i32 @printf(i8*, ...) #1


!llvm.module.flags = !{!0}
!llvm.ident = !{!1}

!0 = !{i32 1, !"wchar_size", i32 4}
!1 = !{!"clang version 10.0.0-4ubuntu1 "}
